target datalayout = "e-m:e-p270:32:32-p271:32:32-p272:64:64-i64:64-i128:128-f80:128-n8:16:32:64-S128"
target triple = "x86_64-pc-linux-gnu"

%struct.dirent = type { i64, i64, i16, i8, [256 x i8] }

@.str.8 = private unnamed_addr constant [12 x i8] c"pg_replslot\00", align 1
@.str.9 = private unnamed_addr constant [2 x i8] c".\00", align 1
@.str.10 = private unnamed_addr constant [3 x i8] c"..\00", align 1

; Function Attrs: nounwind uwtable
define dso_local void @StartupReorderBuffer() #0 {
  %1 = alloca ptr, align 8
  %2 = alloca ptr, align 8
  call void @llvm.lifetime.start.p0(i64 8, ptr %1) #13
  call void @llvm.lifetime.start.p0(i64 8, ptr %2) #13
  %3 = call ptr @AllocateDir(ptr noundef @.str.8)
  store ptr %3, ptr %1, align 8
  br label %4

4:                                                ; preds = %27, %26, %20, %0
  %5 = load ptr, ptr %1, align 8
  %6 = call ptr @ReadDir(ptr noundef %5, ptr noundef @.str.8)
  store ptr %6, ptr %2, align 8
  %7 = icmp ne ptr %6, null
  br i1 %7, label %8, label %31

8:                                                ; preds = %4
  %9 = load ptr, ptr %2, align 8
  %10 = getelementptr inbounds nuw %struct.dirent, ptr %9, i32 0, i32 4
  %11 = getelementptr inbounds [256 x i8], ptr %10, i64 0, i64 0
  %12 = call i32 @strcmp(ptr noundef %11, ptr noundef @.str.9) #14
  %13 = icmp eq i32 %12, 0
  br i1 %13, label %20, label %14

14:                                               ; preds = %8
  %15 = load ptr, ptr %2, align 8
  %16 = getelementptr inbounds nuw %struct.dirent, ptr %15, i32 0, i32 4
  %17 = getelementptr inbounds [256 x i8], ptr %16, i64 0, i64 0
  %18 = call i32 @strcmp(ptr noundef %17, ptr noundef @.str.10) #14
  %19 = icmp eq i32 %18, 0
  br i1 %19, label %20, label %21

20:                                               ; preds = %14, %8
  br label %4, !llvm.loop !16

21:                                               ; preds = %14
  %22 = load ptr, ptr %2, align 8
  %23 = getelementptr inbounds nuw %struct.dirent, ptr %22, i32 0, i32 4
  %24 = getelementptr inbounds [256 x i8], ptr %23, i64 0, i64 0
  %25 = call zeroext i1 @ReplicationSlotValidateName(ptr noundef %24, i32 noundef 13)
  br i1 %25, label %27, label %26

26:                                               ; preds = %21
  br label %4, !llvm.loop !16

27:                                               ; preds = %21
  %28 = load ptr, ptr %2, align 8
  %29 = getelementptr inbounds nuw %struct.dirent, ptr %28, i32 0, i32 4
  %30 = getelementptr inbounds [256 x i8], ptr %29, i64 0, i64 0
  call void @ReorderBufferCleanupSerializedTXNs(ptr noundef %30)
  br label %4, !llvm.loop !16

31:                                               ; preds = %4
  %32 = load ptr, ptr %1, align 8
  %33 = call i32 @FreeDir(ptr noundef %32)
  call void @llvm.lifetime.end.p0(i64 8, ptr %2) #13
  call void @llvm.lifetime.end.p0(i64 8, ptr %1) #13
  ret void
}