; Function Attrs: nounwind uwtable
define dso_local void @StartupReorderBuffer() local_unnamed_addr #0 {
  %1 = tail call ptr @AllocateDir(ptr noundef nonnull @.str.8) #19
  %2 = tail call ptr @ReadDir(ptr noundef %1, ptr noundef nonnull @.str.8) #19
  %.not10 = icmp eq ptr %2, null
  br i1 %.not10, label %._crit_edge, label %sub_0

sub_0:                                            ; preds = %0, %.backedge
  %3 = phi ptr [ %14, %.backedge ], [ %2, %0 ]
  %4 = getelementptr inbounds nuw i8, ptr %3, i64 19
  %5 = load i8, ptr %4, align 1
  %.not11 = icmp eq i8 %5, 46
  br i1 %.not11, label %.tail, label %.tail6.thread

.tail:                                            ; preds = %sub_0
  %6 = getelementptr inbounds nuw i8, ptr %3, i64 20
  %7 = load i8, ptr %6, align 1
  %8 = icmp eq i8 %7, 0
  br i1 %8, label %.backedge, label %sub_18

sub_18:                                           ; preds = %.tail
  %9 = getelementptr inbounds nuw i8, ptr %3, i64 20
  %10 = load i8, ptr %9, align 1
  %.not13 = icmp eq i8 %10, 46
  br i1 %.not13, label %.tail6, label %.tail6.thread

.tail6:                                           ; preds = %sub_18
  %11 = getelementptr inbounds nuw i8, ptr %3, i64 21
  %12 = load i8, ptr %11, align 1
  %13 = icmp eq i8 %12, 0
  br i1 %13, label %.backedge, label %.tail6.thread

.backedge:                                        ; preds = %.tail, %.tail6, %16, %.tail6.thread
  %14 = tail call ptr @ReadDir(ptr noundef %1, ptr noundef nonnull @.str.8) #19
  %.not = icmp eq ptr %14, null
  br i1 %.not, label %._crit_edge, label %sub_0, !llvm.loop !17

.tail6.thread:                                    ; preds = %sub_0, %sub_18, %.tail6
  %15 = tail call zeroext i1 @ReplicationSlotValidateName(ptr noundef nonnull %4, i32 noundef 13) #19
  br i1 %15, label %16, label %.backedge

16:                                               ; preds = %.tail6.thread
  tail call fastcc void @ReorderBufferCleanupSerializedTXNs(ptr noundef nonnull %4)
  br label %.backedge

._crit_edge:                                      ; preds = %.backedge, %0
  %17 = tail call i32 @FreeDir(ptr noundef %1) #19
  ret void
}